target datalayout = "e-m:e-p270:32:32-p271:32:32-p272:64:64-i64:64-i128:128-f80:128-n8:16:32:64-S128"
target triple = "x86_64-pc-linux-gnu"

%struct._zend_extension = type { ptr, ptr, ptr, ptr, ptr, ptr, ptr, ptr, ptr, ptr, ptr, ptr, ptr, ptr, ptr, ptr, ptr, ptr, ptr, ptr, ptr, ptr, ptr, ptr, ptr, i32 }

@zend_version_info = internal global ptr null, align 8
@zend_version_info_length = internal global i32 0, align 4
@.str.7 = private unnamed_addr constant [28 x i8] c"    with %s v%s, %s, by %s\0A\00", align 1

; Function Attrs: nounwind uwtable
define void @zend_append_version_info(ptr noundef %0) #0 {
  %2 = alloca ptr, align 8
  %3 = alloca ptr, align 8
  %4 = alloca i32, align 4
  store ptr %0, ptr %2, align 8
  %5 = load ptr, ptr %2, align 8
  %6 = getelementptr inbounds %struct._zend_extension, ptr %5, i32 0, i32 0
  %7 = load ptr, ptr %6, align 8
  %8 = call i64 @strlen(ptr noundef %7) #19
  %9 = add i64 20, %8
  %10 = load ptr, ptr %2, align 8
  %11 = getelementptr inbounds %struct._zend_extension, ptr %10, i32 0, i32 1
  %12 = load ptr, ptr %11, align 8
  %13 = call i64 @strlen(ptr noundef %12) #19
  %14 = add i64 %9, %13
  %15 = load ptr, ptr %2, align 8
  %16 = getelementptr inbounds %struct._zend_extension, ptr %15, i32 0, i32 4
  %17 = load ptr, ptr %16, align 8
  %18 = call i64 @strlen(ptr noundef %17) #19
  %19 = add i64 %14, %18
  %20 = load ptr, ptr %2, align 8
  %21 = getelementptr inbounds %struct._zend_extension, ptr %20, i32 0, i32 2
  %22 = load ptr, ptr %21, align 8
  %23 = call i64 @strlen(ptr noundef %22) #19
  %24 = add i64 %19, %23
  %25 = trunc i64 %24 to i32
  store i32 %25, ptr %4, align 4
  %26 = load i32, ptr %4, align 4
  %27 = add i32 %26, 1
  %28 = zext i32 %27 to i64
  %29 = call noalias ptr @malloc(i64 noundef %28) #17
  store ptr %29, ptr %3, align 8
  %30 = load ptr, ptr %3, align 8
  %31 = load i32, ptr %4, align 4
  %32 = zext i32 %31 to i64
  %33 = load ptr, ptr %2, align 8
  %34 = getelementptr inbounds %struct._zend_extension, ptr %33, i32 0, i32 0
  %35 = load ptr, ptr %34, align 8
  %36 = load ptr, ptr %2, align 8
  %37 = getelementptr inbounds %struct._zend_extension, ptr %36, i32 0, i32 1
  %38 = load ptr, ptr %37, align 8
  %39 = load ptr, ptr %2, align 8
  %40 = getelementptr inbounds %struct._zend_extension, ptr %39, i32 0, i32 4
  %41 = load ptr, ptr %40, align 8
  %42 = load ptr, ptr %2, align 8
  %43 = getelementptr inbounds %struct._zend_extension, ptr %42, i32 0, i32 2
  %44 = load ptr, ptr %43, align 8
  %45 = call i32 (ptr, i64, ptr, ...) @ap_php_snprintf(ptr noundef %30, i64 noundef %32, ptr noundef @.str.7, ptr noundef %35, ptr noundef %38, ptr noundef %41, ptr noundef %44)
  %46 = load ptr, ptr @zend_version_info, align 8
  %47 = load i32, ptr @zend_version_info_length, align 4
  %48 = load i32, ptr %4, align 4
  %49 = add i32 %47, %48
  %50 = add i32 %49, 1
  %51 = zext i32 %50 to i64
  %52 = call ptr @realloc(ptr noundef %46, i64 noundef %51) #16
  store ptr %52, ptr @zend_version_info, align 8
  %53 = load ptr, ptr @zend_version_info, align 8
  %54 = load ptr, ptr %3, align 8
  %55 = load i32, ptr %4, align 4
  %56 = zext i32 %55 to i64
  %57 = call ptr @strncat(ptr noundef %53, ptr noundef %54, i64 noundef %56) #18
  %58 = load i32, ptr %4, align 4
  %59 = load i32, ptr @zend_version_info_length, align 4
  %60 = add i32 %59, %58
  store i32 %60, ptr @zend_version_info_length, align 4
  %61 = load ptr, ptr %3, align 8
  call void @free(ptr noundef %61) #18
  ret void
}