; Function Attrs: nounwind uwtable
define void @zend_append_version_info(ptr nocapture noundef readonly %0) local_unnamed_addr #0 {
  %2 = load ptr, ptr %0, align 8
  %3 = tail call i64 @strlen(ptr noundef nonnull dereferenceable(1) %2) #33
  %4 = add i64 %3, 20
  %5 = getelementptr inbounds i8, ptr %0, i64 8
  %6 = load ptr, ptr %5, align 8
  %7 = tail call i64 @strlen(ptr noundef nonnull dereferenceable(1) %6) #33
  %8 = add i64 %4, %7
  %9 = getelementptr inbounds i8, ptr %0, i64 32
  %10 = load ptr, ptr %9, align 8
  %11 = tail call i64 @strlen(ptr noundef nonnull dereferenceable(1) %10) #33
  %12 = add i64 %8, %11
  %13 = getelementptr inbounds i8, ptr %0, i64 16
  %14 = load ptr, ptr %13, align 8
  %15 = tail call i64 @strlen(ptr noundef nonnull dereferenceable(1) %14) #33
  %16 = add i64 %12, %15
  %17 = trunc i64 %16 to i32
  %18 = add i64 %16, 1
  %19 = and i64 %18, 4294967295
  %20 = tail call noalias ptr @malloc(i64 noundef %19) #32
  %21 = and i64 %16, 4294967295
  %22 = tail call i32 (ptr, i64, ptr, ...) @ap_php_snprintf(ptr noundef %20, i64 noundef %21, ptr noundef nonnull @.str.7, ptr noundef %2, ptr noundef %6, ptr noundef %10, ptr noundef %14) #30
  %23 = load ptr, ptr @zend_version_info, align 8
  %24 = load i32, ptr @zend_version_info_length, align 4
  %25 = add i32 %24, %17
  %26 = add i32 %25, 1
  %27 = zext i32 %26 to i64
  %28 = tail call ptr @realloc(ptr noundef %23, i64 noundef %27) #31
  store ptr %28, ptr @zend_version_info, align 8
  %29 = tail call ptr @strncat(ptr noundef nonnull dereferenceable(1) %28, ptr noundef %20, i64 noundef %21) #30
  store i32 %25, ptr @zend_version_info_length, align 4
  tail call void @free(ptr noundef %20) #30
  ret void
}